; ModuleID = 'source-C-CXX/44/1012.c'
source_filename = "source-C-CXX/44/1012.c"
target datalayout = "e-m:e-p270:32:32-p271:32:32-p272:64:64-i64:64-f80:128-n8:16:32:64-S128"
target triple = "x86_64-pc-linux-gnu"

@.str = private unnamed_addr constant [5 x i8] c"%s%s\00", align 1
@.str.1 = private unnamed_addr constant [3 x i8] c"%d\00", align 1

; Function Attrs: nofree nounwind sspstrong uwtable
define dso_local void @main() local_unnamed_addr #0 {
  %1 = alloca [50 x i8], align 16
  %2 = alloca [50 x i8], align 16
  %3 = getelementptr inbounds [50 x i8], [50 x i8]* %1, i64 0, i64 0
  call void @llvm.lifetime.start.p0i8(i64 50, i8* nonnull %3) #3
  %4 = getelementptr inbounds [50 x i8], [50 x i8]* %2, i64 0, i64 0
  call void @llvm.lifetime.start.p0i8(i64 50, i8* nonnull %4) #3
  %5 = call i32 (i8*, ...) @__isoc99_scanf(i8* getelementptr inbounds ([5 x i8], [5 x i8]* @.str, i64 0, i64 0), i8* nonnull %3, i8* nonnull %4)
  %6 = load i8, i8* %3, align 16
  %7 = icmp eq i8 %6, 0
  %8 = load i8, i8* %4, align 16, !tbaa !5
  %9 = icmp eq i8 %8, 0
  %10 = select i1 %9, i1 true, i1 %7
  br i1 %10, label %36, label %11

11:                                               ; preds = %0, %27
  %12 = phi i8 [ %30, %27 ], [ %8, %0 ]
  %13 = phi i64 [ %28, %27 ], [ 0, %0 ]
  %14 = phi i8* [ %29, %27 ], [ %4, %0 ]
  %15 = icmp eq i8 %12, %6
  br i1 %15, label %16, label %27

16:                                               ; preds = %11, %24
  %17 = phi i8* [ %19, %24 ], [ %14, %11 ]
  %18 = phi i64 [ %20, %24 ], [ 0, %11 ]
  %19 = getelementptr inbounds i8, i8* %17, i64 1
  %20 = add nuw i64 %18, 1
  %21 = getelementptr inbounds [50 x i8], [50 x i8]* %1, i64 0, i64 %20
  %22 = load i8, i8* %21, align 1, !tbaa !5
  %23 = icmp eq i8 %22, 0
  br i1 %23, label %32, label %24, !llvm.loop !8

24:                                               ; preds = %16
  %25 = load i8, i8* %19, align 1, !tbaa !5
  %26 = icmp eq i8 %25, %22
  br i1 %26, label %16, label %27

27:                                               ; preds = %24, %11
  %28 = add nuw i64 %13, 1
  %29 = getelementptr inbounds [50 x i8], [50 x i8]* %2, i64 0, i64 %28
  %30 = load i8, i8* %29, align 1, !tbaa !5
  %31 = icmp eq i8 %30, 0
  br i1 %31, label %34, label %11, !llvm.loop !10

32:                                               ; preds = %16
  %33 = trunc i64 %13 to i32
  br label %36

34:                                               ; preds = %27
  %35 = trunc i64 %28 to i32
  br label %36

36:                                               ; preds = %34, %32, %0
  %37 = phi i32 [ 0, %0 ], [ %33, %32 ], [ %35, %34 ]
  %38 = call i32 (i8*, ...) @printf(i8* nonnull dereferenceable(1) getelementptr inbounds ([3 x i8], [3 x i8]* @.str.1, i64 0, i64 0), i32 %37)
  call void @llvm.lifetime.end.p0i8(i64 50, i8* nonnull %4) #3
  call void @llvm.lifetime.end.p0i8(i64 50, i8* nonnull %3) #3
  ret void
}

; Function Attrs: argmemonly mustprogress nofree nosync nounwind willreturn
declare void @llvm.lifetime.start.p0i8(i64 immarg, i8* nocapture) #1

; Function Attrs: nofree nounwind
declare noundef i32 @__isoc99_scanf(i8* nocapture noundef readonly, ...) local_unnamed_addr #2

; Function Attrs: nofree nounwind
declare noundef i32 @printf(i8* nocapture noundef readonly, ...) local_unnamed_addr #2

; Function Attrs: argmemonly mustprogress nofree nosync nounwind willreturn
declare void @llvm.lifetime.end.p0i8(i64 immarg, i8* nocapture) #1


!llvm.module.flags = !{!0, !1, !2, !3}
!llvm.ident = !{!4}

!0 = !{i32 1, !"wchar_size", i32 4}
!1 = !{i32 7, !"PIC Level", i32 2}
!2 = !{i32 7, !"PIE Level", i32 2}
!3 = !{i32 7, !"uwtable", i32 1}
!4 = !{!"clang version 13.0.0"}
!5 = !{!6, !6, i64 0}
!6 = !{!"omnipotent char", !7, i64 0}
!7 = !{!"Simple C/C++ TBAA"}
!8 = distinct !{!8, !9}
!9 = !{!"llvm.loop.mustprogress"}
!10 = distinct !{!10, !9}
